ARM GAS  /tmp/cc8RXFf3.s 			page 1


   1              		.cpu cortex-m4
   2              		.eabi_attribute 27, 1
   3              		.eabi_attribute 28, 1
   4              		.eabi_attribute 20, 1
   5              		.eabi_attribute 21, 1
   6              		.eabi_attribute 23, 3
   7              		.eabi_attribute 24, 1
   8              		.eabi_attribute 25, 1
   9              		.eabi_attribute 26, 1
  10              		.eabi_attribute 30, 2
  11              		.eabi_attribute 34, 1
  12              		.eabi_attribute 18, 4
  13              		.file	"main.c"
  14              		.text
  15              	.Ltext0:
  16              		.cfi_sections	.debug_frame
  17              		.section	.text.chprintf.constprop.0,"ax",%progbits
  18              		.align	1
  19              		.p2align 4,,15
  20              		.syntax unified
  21              		.thumb
  22              		.thumb_func
  23              		.fpu fpv4-sp-d16
  24              		.type	chprintf.constprop.0, %function
  25              	chprintf.constprop.0:
  26              	.LFB267:
  27              		.file 1 "../e-puck2_main-processor/ChibiOS//os/hal/lib/streams/chprintf.h"
  28              		.loc 1 69 0
  29              		.cfi_startproc
  30              		@ args = 4, pretend = 12, frame = 8
  31              		@ frame_needed = 0, uses_anonymous_args = 1
  32              	.LVL0:
  33 0000 0EB4     		push	{r1, r2, r3}
  34              		.cfi_def_cfa_offset 12
  35              		.cfi_offset 1, -12
  36              		.cfi_offset 2, -8
  37              		.cfi_offset 3, -4
  38 0002 10B5     		push	{r4, lr}
  39              		.cfi_def_cfa_offset 20
  40              		.cfi_offset 4, -20
  41              		.cfi_offset 14, -16
  42 0004 83B0     		sub	sp, sp, #12
  43              		.cfi_def_cfa_offset 32
  44              		.loc 1 69 0
  45 0006 05AA     		add	r2, sp, #20
  46 0008 094C     		ldr	r4, .L6
  47 000a 52F8041B 		ldr	r1, [r2], #4
  48 000e 2368     		ldr	r3, [r4]
  49              		.loc 1 74 0
  50 0010 0848     		ldr	r0, .L6+4
  51              	.LVL1:
  52              		.loc 1 73 0
  53 0012 0092     		str	r2, [sp]
  54              		.loc 1 69 0
  55 0014 0193     		str	r3, [sp, #4]
  56              	.LVL2:
  57              		.loc 1 74 0
ARM GAS  /tmp/cc8RXFf3.s 			page 2


  58 0016 FFF7FEFF 		bl	chvprintf
  59              	.LVL3:
  60              		.loc 1 78 0
  61 001a 019A     		ldr	r2, [sp, #4]
  62 001c 2368     		ldr	r3, [r4]
  63 001e 9A42     		cmp	r2, r3
  64 0020 04D1     		bne	.L5
  65 0022 03B0     		add	sp, sp, #12
  66              		.cfi_remember_state
  67              		.cfi_def_cfa_offset 20
  68              		@ sp needed
  69 0024 BDE81040 		pop	{r4, lr}
  70              		.cfi_restore 14
  71              		.cfi_restore 4
  72              		.cfi_def_cfa_offset 12
  73 0028 03B0     		add	sp, sp, #12
  74              		.cfi_restore 3
  75              		.cfi_restore 2
  76              		.cfi_restore 1
  77              		.cfi_def_cfa_offset 0
  78 002a 7047     		bx	lr
  79              	.L5:
  80              		.cfi_restore_state
  81 002c FFF7FEFF 		bl	__stack_chk_fail
  82              	.LVL4:
  83              	.L7:
  84              		.align	2
  85              	.L6:
  86 0030 00000000 		.word	__stack_chk_guard
  87 0034 00000000 		.word	SDU1
  88              		.cfi_endproc
  89              	.LFE267:
  90              		.size	chprintf.constprop.0, .-chprintf.constprop.0
  91              		.section	.text.fw,"ax",%progbits
  92              		.align	1
  93              		.p2align 4,,15
  94              		.global	fw
  95              		.syntax unified
  96              		.thumb
  97              		.thumb_func
  98              		.fpu fpv4-sp-d16
  99              		.type	fw, %function
 100              	fw:
 101              	.LFB260:
 102              		.file 2 "main.c"
 103              		.loc 2 29 0
 104              		.cfi_startproc
 105              		@ args = 0, pretend = 0, frame = 8
 106              		@ frame_needed = 0, uses_anonymous_args = 0
 107              	.LVL5:
 108 0000 30B5     		push	{r4, r5, lr}
 109              		.cfi_def_cfa_offset 12
 110              		.cfi_offset 4, -12
 111              		.cfi_offset 5, -8
 112              		.cfi_offset 14, -4
 113 0002 094C     		ldr	r4, .L13
 114 0004 83B0     		sub	sp, sp, #12
ARM GAS  /tmp/cc8RXFf3.s 			page 3


 115              		.cfi_def_cfa_offset 24
 116              		.loc 2 29 0
 117 0006 2368     		ldr	r3, [r4]
 118 0008 0193     		str	r3, [sp, #4]
 119 000a 0546     		mov	r5, r0
 120              		.loc 2 30 0
 121 000c FFF7FEFF 		bl	left_motor_set_speed
 122              	.LVL6:
 123              		.loc 2 31 0
 124 0010 019A     		ldr	r2, [sp, #4]
 125 0012 2368     		ldr	r3, [r4]
 126 0014 9A42     		cmp	r2, r3
 127 0016 05D1     		bne	.L12
 128 0018 2846     		mov	r0, r5
 129              		.loc 2 32 0
 130 001a 03B0     		add	sp, sp, #12
 131              		.cfi_remember_state
 132              		.cfi_def_cfa_offset 12
 133              		@ sp needed
 134 001c BDE83040 		pop	{r4, r5, lr}
 135              		.cfi_restore 14
 136              		.cfi_restore 5
 137              		.cfi_restore 4
 138              		.cfi_def_cfa_offset 0
 139              	.LVL7:
 140              		.loc 2 31 0
 141 0020 FFF7FEBF 		b	right_motor_set_speed
 142              	.LVL8:
 143              	.L12:
 144              		.cfi_restore_state
 145 0024 FFF7FEFF 		bl	__stack_chk_fail
 146              	.LVL9:
 147              	.L14:
 148              		.align	2
 149              	.L13:
 150 0028 00000000 		.word	__stack_chk_guard
 151              		.cfi_endproc
 152              	.LFE260:
 153              		.size	fw, .-fw
 154              		.section	.text.bw,"ax",%progbits
 155              		.align	1
 156              		.p2align 4,,15
 157              		.global	bw
 158              		.syntax unified
 159              		.thumb
 160              		.thumb_func
 161              		.fpu fpv4-sp-d16
 162              		.type	bw, %function
 163              	bw:
 164              	.LFB261:
 165              		.loc 2 35 0
 166              		.cfi_startproc
 167              		@ args = 0, pretend = 0, frame = 8
 168              		@ frame_needed = 0, uses_anonymous_args = 0
 169              	.LVL10:
 170 0000 30B5     		push	{r4, r5, lr}
 171              		.cfi_def_cfa_offset 12
ARM GAS  /tmp/cc8RXFf3.s 			page 4


 172              		.cfi_offset 4, -12
 173              		.cfi_offset 5, -8
 174              		.cfi_offset 14, -4
 175 0002 0A4C     		ldr	r4, .L20
 176 0004 83B0     		sub	sp, sp, #12
 177              		.cfi_def_cfa_offset 24
 178              		.loc 2 36 0
 179 0006 4542     		negs	r5, r0
 180              		.loc 2 35 0
 181 0008 2368     		ldr	r3, [r4]
 182 000a 0193     		str	r3, [sp, #4]
 183              		.loc 2 36 0
 184 000c 2846     		mov	r0, r5
 185              	.LVL11:
 186 000e FFF7FEFF 		bl	left_motor_set_speed
 187              	.LVL12:
 188              		.loc 2 37 0
 189 0012 019A     		ldr	r2, [sp, #4]
 190 0014 2368     		ldr	r3, [r4]
 191 0016 9A42     		cmp	r2, r3
 192 0018 05D1     		bne	.L19
 193 001a 2846     		mov	r0, r5
 194              		.loc 2 38 0
 195 001c 03B0     		add	sp, sp, #12
 196              		.cfi_remember_state
 197              		.cfi_def_cfa_offset 12
 198              		@ sp needed
 199 001e BDE83040 		pop	{r4, r5, lr}
 200              		.cfi_restore 14
 201              		.cfi_restore 5
 202              		.cfi_restore 4
 203              		.cfi_def_cfa_offset 0
 204              	.LVL13:
 205              		.loc 2 37 0
 206 0022 FFF7FEBF 		b	right_motor_set_speed
 207              	.LVL14:
 208              	.L19:
 209              		.cfi_restore_state
 210 0026 FFF7FEFF 		bl	__stack_chk_fail
 211              	.LVL15:
 212              	.L21:
 213 002a 00BF     		.align	2
 214              	.L20:
 215 002c 00000000 		.word	__stack_chk_guard
 216              		.cfi_endproc
 217              	.LFE261:
 218              		.size	bw, .-bw
 219              		.section	.text.trn,"ax",%progbits
 220              		.align	1
 221              		.p2align 4,,15
 222              		.global	trn
 223              		.syntax unified
 224              		.thumb
 225              		.thumb_func
 226              		.fpu fpv4-sp-d16
 227              		.type	trn, %function
 228              	trn:
ARM GAS  /tmp/cc8RXFf3.s 			page 5


 229              	.LFB262:
 230              		.loc 2 41 0
 231              		.cfi_startproc
 232              		@ args = 0, pretend = 0, frame = 8
 233              		@ frame_needed = 0, uses_anonymous_args = 0
 234              	.LVL16:
 235 0000 30B5     		push	{r4, r5, lr}
 236              		.cfi_def_cfa_offset 12
 237              		.cfi_offset 4, -12
 238              		.cfi_offset 5, -8
 239              		.cfi_offset 14, -4
 240 0002 094C     		ldr	r4, .L27
 241 0004 83B0     		sub	sp, sp, #12
 242              		.cfi_def_cfa_offset 24
 243              		.loc 2 41 0
 244 0006 2368     		ldr	r3, [r4]
 245 0008 0193     		str	r3, [sp, #4]
 246 000a 0D46     		mov	r5, r1
 247              		.loc 2 42 0
 248 000c FFF7FEFF 		bl	left_motor_set_speed
 249              	.LVL17:
 250              		.loc 2 43 0
 251 0010 019A     		ldr	r2, [sp, #4]
 252 0012 2368     		ldr	r3, [r4]
 253 0014 9A42     		cmp	r2, r3
 254 0016 05D1     		bne	.L26
 255 0018 2846     		mov	r0, r5
 256              		.loc 2 44 0
 257 001a 03B0     		add	sp, sp, #12
 258              		.cfi_remember_state
 259              		.cfi_def_cfa_offset 12
 260              		@ sp needed
 261 001c BDE83040 		pop	{r4, r5, lr}
 262              		.cfi_restore 14
 263              		.cfi_restore 5
 264              		.cfi_restore 4
 265              		.cfi_def_cfa_offset 0
 266              	.LVL18:
 267              		.loc 2 43 0
 268 0020 FFF7FEBF 		b	right_motor_set_speed
 269              	.LVL19:
 270              	.L26:
 271              		.cfi_restore_state
 272 0024 FFF7FEFF 		bl	__stack_chk_fail
 273              	.LVL20:
 274              	.L28:
 275              		.align	2
 276              	.L27:
 277 0028 00000000 		.word	__stack_chk_guard
 278              		.cfi_endproc
 279              	.LFE262:
 280              		.size	trn, .-trn
 281              		.section	.text.st,"ax",%progbits
 282              		.align	1
 283              		.p2align 4,,15
 284              		.global	st
 285              		.syntax unified
ARM GAS  /tmp/cc8RXFf3.s 			page 6


 286              		.thumb
 287              		.thumb_func
 288              		.fpu fpv4-sp-d16
 289              		.type	st, %function
 290              	st:
 291              	.LFB263:
 292              		.loc 2 47 0
 293              		.cfi_startproc
 294              		@ args = 0, pretend = 0, frame = 8
 295              		@ frame_needed = 0, uses_anonymous_args = 0
 296 0000 10B5     		push	{r4, lr}
 297              		.cfi_def_cfa_offset 8
 298              		.cfi_offset 4, -8
 299              		.cfi_offset 14, -4
 300 0002 094C     		ldr	r4, .L34
 301 0004 82B0     		sub	sp, sp, #8
 302              		.cfi_def_cfa_offset 16
 303              		.loc 2 47 0
 304 0006 2368     		ldr	r3, [r4]
 305 0008 0193     		str	r3, [sp, #4]
 306              		.loc 2 48 0
 307 000a 0020     		movs	r0, #0
 308 000c FFF7FEFF 		bl	left_motor_set_speed
 309              	.LVL21:
 310              		.loc 2 49 0
 311 0010 019A     		ldr	r2, [sp, #4]
 312 0012 2368     		ldr	r3, [r4]
 313 0014 9A42     		cmp	r2, r3
 314 0016 05D1     		bne	.L33
 315 0018 0020     		movs	r0, #0
 316              		.loc 2 50 0
 317 001a 02B0     		add	sp, sp, #8
 318              		.cfi_remember_state
 319              		.cfi_def_cfa_offset 8
 320              		@ sp needed
 321 001c BDE81040 		pop	{r4, lr}
 322              		.cfi_restore 14
 323              		.cfi_restore 4
 324              		.cfi_def_cfa_offset 0
 325              		.loc 2 49 0
 326 0020 FFF7FEBF 		b	right_motor_set_speed
 327              	.LVL22:
 328              	.L33:
 329              		.cfi_restore_state
 330 0024 FFF7FEFF 		bl	__stack_chk_fail
 331              	.LVL23:
 332              	.L35:
 333              		.align	2
 334              	.L34:
 335 0028 00000000 		.word	__stack_chk_guard
 336              		.cfi_endproc
 337              	.LFE263:
 338              		.size	st, .-st
 339              		.section	.text.sread,"ax",%progbits
 340              		.align	1
 341              		.p2align 4,,15
 342              		.global	sread
ARM GAS  /tmp/cc8RXFf3.s 			page 7


 343              		.syntax unified
 344              		.thumb
 345              		.thumb_func
 346              		.fpu fpv4-sp-d16
 347              		.type	sread, %function
 348              	sread:
 349              	.LFB264:
 350              		.loc 2 52 0
 351              		.cfi_startproc
 352              		@ args = 0, pretend = 0, frame = 8
 353              		@ frame_needed = 0, uses_anonymous_args = 0
 354 0000 2DE9F043 		push	{r4, r5, r6, r7, r8, r9, lr}
 355              		.cfi_def_cfa_offset 28
 356              		.cfi_offset 4, -28
 357              		.cfi_offset 5, -24
 358              		.cfi_offset 6, -20
 359              		.cfi_offset 7, -16
 360              		.cfi_offset 8, -12
 361              		.cfi_offset 9, -8
 362              		.cfi_offset 14, -4
 363 0004 1C4F     		ldr	r7, .L46
 364 0006 1D4D     		ldr	r5, .L46+4
 365 0008 3B68     		ldr	r3, [r7]
 366              		.loc 2 56 0
 367 000a DFF87490 		ldr	r9, .L46+8
 368              		.loc 2 59 0
 369 000e DFF87480 		ldr	r8, .L46+12
 370              		.loc 2 52 0
 371 0012 83B0     		sub	sp, sp, #12
 372              		.cfi_def_cfa_offset 40
 373              		.loc 2 56 0
 374 0014 2E46     		mov	r6, r5
 375              		.loc 2 52 0
 376 0016 0193     		str	r3, [sp, #4]
 377              	.LVL24:
 378              		.loc 2 54 0
 379 0018 0024     		movs	r4, #0
 380 001a 05E0     		b	.L40
 381              	.LVL25:
 382              	.L38:
 383              		.loc 2 54 0 is_stmt 0 discriminator 2
 384 001c 0134     		adds	r4, r4, #1
 385              	.LVL26:
 386              		.loc 2 61 0 is_stmt 1 discriminator 2
 387 001e 3220     		movs	r0, #50
 388 0020 FFF7FEFF 		bl	chThdSleep
 389              	.LVL27:
 390              		.loc 2 54 0 discriminator 2
 391 0024 072C     		cmp	r4, #7
 392 0026 1DD0     		beq	.L44
 393              	.LVL28:
 394              	.L40:
 395              		.loc 2 55 0
 396 0028 D5F85432 		ldr	r3, [r5, #596]
 397 002c 1B68     		ldr	r3, [r3]
 398 002e 1B78     		ldrb	r3, [r3]	@ zero_extendqisi2
 399 0030 042B     		cmp	r3, #4
ARM GAS  /tmp/cc8RXFf3.s 			page 8


 400 0032 F3D1     		bne	.L38
 401              		.loc 2 56 0
 402 0034 4946     		mov	r1, r9
 403 0036 3046     		mov	r0, r6
 404 0038 FFF7FEFF 		bl	chprintf.constprop.0
 405              	.LVL29:
 406              		.loc 2 58 0
 407 003c D5F85432 		ldr	r3, [r5, #596]
 408 0040 1B68     		ldr	r3, [r3]
 409 0042 1B78     		ldrb	r3, [r3]	@ zero_extendqisi2
 410 0044 042B     		cmp	r3, #4
 411 0046 E9D1     		bne	.L38
 412              		.loc 2 59 0
 413 0048 2046     		mov	r0, r4
 414 004a FFF7FEFF 		bl	get_prox
 415              	.LVL30:
 416 004e 4146     		mov	r1, r8
 417 0050 0246     		mov	r2, r0
 418 0052 3046     		mov	r0, r6
 419 0054 FFF7FEFF 		bl	chprintf.constprop.0
 420              	.LVL31:
 421              		.loc 2 54 0
 422 0058 0134     		adds	r4, r4, #1
 423              	.LVL32:
 424              		.loc 2 61 0
 425 005a 3220     		movs	r0, #50
 426 005c FFF7FEFF 		bl	chThdSleep
 427              	.LVL33:
 428              		.loc 2 54 0
 429 0060 072C     		cmp	r4, #7
 430 0062 E1D1     		bne	.L40
 431              	.L44:
 432              		.loc 2 64 0
 433 0064 019A     		ldr	r2, [sp, #4]
 434 0066 3B68     		ldr	r3, [r7]
 435 0068 9A42     		cmp	r2, r3
 436 006a 02D1     		bne	.L45
 437 006c 03B0     		add	sp, sp, #12
 438              		.cfi_remember_state
 439              		.cfi_def_cfa_offset 28
 440              		@ sp needed
 441 006e BDE8F083 		pop	{r4, r5, r6, r7, r8, r9, pc}
 442              	.LVL34:
 443              	.L45:
 444              		.cfi_restore_state
 445 0072 FFF7FEFF 		bl	__stack_chk_fail
 446              	.LVL35:
 447              	.L47:
 448 0076 00BF     		.align	2
 449              	.L46:
 450 0078 00000000 		.word	__stack_chk_guard
 451 007c 00000000 		.word	SDU1
 452 0080 00000000 		.word	.LC0
 453 0084 1C000000 		.word	.LC1
 454              		.cfi_endproc
 455              	.LFE264:
 456              		.size	sread, .-sread
ARM GAS  /tmp/cc8RXFf3.s 			page 9


 457              		.section	.text.startup.main,"ax",%progbits
 458              		.align	1
 459              		.p2align 4,,15
 460              		.global	main
 461              		.syntax unified
 462              		.thumb
 463              		.thumb_func
 464              		.fpu fpv4-sp-d16
 465              		.type	main, %function
 466              	main:
 467              	.LFB265:
 468              		.loc 2 67 0
 469              		.cfi_startproc
 470              		@ Volatile: function does not return.
 471              		@ args = 0, pretend = 0, frame = 8
 472              		@ frame_needed = 0, uses_anonymous_args = 0
 473 0000 00B5     		push	{lr}
 474              		.cfi_def_cfa_offset 4
 475              		.cfi_offset 14, -4
 476 0002 284B     		ldr	r3, .L60
 477              		.loc 2 68 0
 478 0004 284A     		ldr	r2, .L60+4
 479              		.loc 2 67 0
 480 0006 1B68     		ldr	r3, [r3]
 481              		.loc 2 68 0
 482 0008 2849     		ldr	r1, .L60+8
 483 000a 2948     		ldr	r0, .L60+12
 484              	.LBB10:
 485              	.LBB11:
 486              		.loc 2 36 0
 487 000c 294C     		ldr	r4, .L60+16
 488              	.LBE11:
 489              	.LBE10:
 490              		.loc 2 67 0
 491 000e 83B0     		sub	sp, sp, #12
 492              		.cfi_def_cfa_offset 16
 493              		.loc 2 67 0
 494 0010 0193     		str	r3, [sp, #4]
 495              		.loc 2 68 0
 496 0012 FFF7FEFF 		bl	messagebus_init
 497              	.LVL36:
 498              		.loc 2 69 0
 499 0016 FFF7FEFF 		bl	halInit
 500              	.LVL37:
 501              		.loc 2 70 0
 502 001a FFF7FEFF 		bl	chSysInit
 503              	.LVL38:
 504              		.loc 2 72 0
 505 001e FFF7FEFF 		bl	serial_start
 506              	.LVL39:
 507              		.loc 2 73 0
 508 0022 FFF7FEFF 		bl	usb_start
 509              	.LVL40:
 510              		.loc 2 75 0
 511 0026 FFF7FEFF 		bl	mpu_init
 512              	.LVL41:
 513              		.loc 2 76 0
ARM GAS  /tmp/cc8RXFf3.s 			page 10


 514 002a FFF7FEFF 		bl	clear_leds
 515              	.LVL42:
 516              		.loc 2 78 0
 517 002e FFF7FEFF 		bl	spi_comm_start
 518              	.LVL43:
 519              		.loc 2 79 0
 520 0032 FFF7FEFF 		bl	motors_init
 521              	.LVL44:
 522              		.loc 2 81 0
 523 0036 FFF7FEFF 		bl	proximity_start
 524              	.LVL45:
 525              		.loc 2 82 0
 526 003a FFF7FEFF 		bl	calibrate_ir
 527              	.LVL46:
 528              	.L49:
 529              		.loc 2 117 0
 530 003e FFF7FEFF 		bl	sread
 531              	.LVL47:
 532              	.LBB13:
 533              	.LBB14:
 534              		.loc 2 30 0
 535 0042 0020     		movs	r0, #0
 536 0044 FFF7FEFF 		bl	left_motor_set_speed
 537              	.LVL48:
 538              		.loc 2 31 0
 539 0048 0020     		movs	r0, #0
 540 004a FFF7FEFF 		bl	right_motor_set_speed
 541              	.LVL49:
 542              	.LBE14:
 543              	.LBE13:
 544              		.loc 2 123 0
 545 004e 0020     		movs	r0, #0
 546 0050 FFF7FEFF 		bl	get_prox
 547              	.LVL50:
 548 0054 F928     		cmp	r0, #249
 549 0056 F2DD     		ble	.L49
 550              		.loc 2 123 0 is_stmt 0 discriminator 1
 551 0058 0720     		movs	r0, #7
 552 005a FFF7FEFF 		bl	get_prox
 553              	.LVL51:
 554 005e F928     		cmp	r0, #249
 555 0060 EDDD     		ble	.L49
 556              	.LBB15:
 557              	.LBB16:
 558              		.loc 2 48 0 is_stmt 1
 559 0062 0020     		movs	r0, #0
 560 0064 FFF7FEFF 		bl	left_motor_set_speed
 561              	.LVL52:
 562              		.loc 2 49 0
 563 0068 0020     		movs	r0, #0
 564 006a FFF7FEFF 		bl	right_motor_set_speed
 565              	.LVL53:
 566              	.LBE16:
 567              	.LBE15:
 568              		.loc 2 125 0
 569 006e 6420     		movs	r0, #100
 570 0070 FFF7FEFF 		bl	chThdSleep
ARM GAS  /tmp/cc8RXFf3.s 			page 11


 571              	.LVL54:
 572              	.LBB17:
 573              	.LBB12:
 574              		.loc 2 36 0
 575 0074 2046     		mov	r0, r4
 576 0076 FFF7FEFF 		bl	left_motor_set_speed
 577              	.LVL55:
 578              		.loc 2 37 0
 579 007a 2046     		mov	r0, r4
 580 007c FFF7FEFF 		bl	right_motor_set_speed
 581              	.LVL56:
 582              	.LBE12:
 583              	.LBE17:
 584              		.loc 2 127 0
 585 0080 0020     		movs	r0, #0
 586 0082 FFF7FEFF 		bl	get_prox
 587              	.LVL57:
 588 0086 3228     		cmp	r0, #50
 589 0088 D9D1     		bne	.L49
 590              		.loc 2 127 0 is_stmt 0 discriminator 1
 591 008a 0720     		movs	r0, #7
 592 008c FFF7FEFF 		bl	get_prox
 593              	.LVL58:
 594 0090 3228     		cmp	r0, #50
 595 0092 D4D1     		bne	.L49
 596              	.LBB18:
 597              	.LBB19:
 598              		.loc 2 48 0 is_stmt 1
 599 0094 0020     		movs	r0, #0
 600 0096 FFF7FEFF 		bl	left_motor_set_speed
 601              	.LVL59:
 602              		.loc 2 49 0
 603 009a 0020     		movs	r0, #0
 604 009c FFF7FEFF 		bl	right_motor_set_speed
 605              	.LVL60:
 606 00a0 CDE7     		b	.L49
 607              	.L61:
 608 00a2 00BF     		.align	2
 609              	.L60:
 610 00a4 00000000 		.word	__stack_chk_guard
 611 00a8 00000000 		.word	.LANCHOR0
 612 00ac 00000000 		.word	.LANCHOR1
 613 00b0 00000000 		.word	.LANCHOR2
 614 00b4 0CFEFFFF 		.word	-500
 615              	.LBE19:
 616              	.LBE18:
 617              		.cfi_endproc
 618              	.LFE265:
 619              		.size	main, .-main
 620              		.section	.text.__stack_chk_fail,"ax",%progbits
 621              		.align	1
 622              		.p2align 4,,15
 623              		.global	__stack_chk_fail
 624              		.syntax unified
 625              		.thumb
 626              		.thumb_func
 627              		.fpu fpv4-sp-d16
ARM GAS  /tmp/cc8RXFf3.s 			page 12


 628              		.type	__stack_chk_fail, %function
 629              	__stack_chk_fail:
 630              	.LFB266:
 631              		.loc 2 140 0
 632              		.cfi_startproc
 633              		@ args = 0, pretend = 0, frame = 8
 634              		@ frame_needed = 0, uses_anonymous_args = 0
 635 0000 00B5     		push	{lr}
 636              		.cfi_def_cfa_offset 4
 637              		.cfi_offset 14, -4
 638 0002 084B     		ldr	r3, .L67
 639 0004 83B0     		sub	sp, sp, #12
 640              		.cfi_def_cfa_offset 16
 641              		.loc 2 140 0
 642 0006 1A68     		ldr	r2, [r3]
 643 0008 0192     		str	r2, [sp, #4]
 644              		.loc 2 141 0
 645 000a 019A     		ldr	r2, [sp, #4]
 646 000c 1B68     		ldr	r3, [r3]
 647 000e 9A42     		cmp	r2, r3
 648 0010 05D1     		bne	.L66
 649 0012 0548     		ldr	r0, .L67+4
 650              		.loc 2 142 0
 651 0014 03B0     		add	sp, sp, #12
 652              		.cfi_remember_state
 653              		.cfi_def_cfa_offset 4
 654              		@ sp needed
 655 0016 5DF804EB 		ldr	lr, [sp], #4
 656              		.cfi_restore 14
 657              		.cfi_def_cfa_offset 0
 658              		.loc 2 141 0
 659 001a FFF7FEBF 		b	chSysHalt
 660              	.LVL61:
 661              	.L66:
 662              		.cfi_restore_state
 663 001e FFF7FEFF 		bl	__stack_chk_fail
 664              	.LVL62:
 665              	.L68:
 666 0022 00BF     		.align	2
 667              	.L67:
 668 0024 00000000 		.word	__stack_chk_guard
 669 0028 00000000 		.word	.LC2
 670              		.cfi_endproc
 671              	.LFE266:
 672              		.size	__stack_chk_fail, .-__stack_chk_fail
 673              		.global	__stack_chk_guard
 674              		.global	bus_condvar
 675              		.global	bus_lock
 676              		.global	bus
 677              		.section	.bss.bus,"aw",%nobits
 678              		.align	2
 679              		.set	.LANCHOR2,. + 0
 680              		.type	bus, %object
 681              		.size	bus, 12
 682              	bus:
 683 0000 00000000 		.space	12
 683      00000000 
ARM GAS  /tmp/cc8RXFf3.s 			page 13


 683      00000000 
 684              		.section	.data.__stack_chk_guard,"aw",%progbits
 685              		.align	2
 686              		.type	__stack_chk_guard, %object
 687              		.size	__stack_chk_guard, 4
 688              	__stack_chk_guard:
 689 0000 96E3DEE2 		.word	-488709226
 690              		.section	.data.bus_condvar,"aw",%progbits
 691              		.align	2
 692              		.set	.LANCHOR0,. + 0
 693              		.type	bus_condvar, %object
 694              		.size	bus_condvar, 8
 695              	bus_condvar:
 696 0000 00000000 		.word	bus_condvar
 697 0004 00000000 		.word	bus_condvar
 698              		.section	.data.bus_lock,"aw",%progbits
 699              		.align	2
 700              		.set	.LANCHOR1,. + 0
 701              		.type	bus_lock, %object
 702              		.size	bus_lock, 20
 703              	bus_lock:
 704 0000 00000000 		.word	bus_lock
 705 0004 00000000 		.word	bus_lock
 706 0008 00000000 		.word	0
 707 000c 00000000 		.word	0
 708 0010 00000000 		.word	0
 709              		.section	.rodata.__stack_chk_fail.str1.4,"aMS",%progbits,1
 710              		.align	2
 711              	.LC2:
 712 0000 53746163 		.ascii	"Stack smashing detected\000"
 712      6B20736D 
 712      61736869 
 712      6E672064 
 712      65746563 
 713              		.section	.rodata.sread.str1.4,"aMS",%progbits,1
 714              		.align	2
 715              	.LC0:
 716 0000 2D2D2D2D 		.ascii	"-----------------------\012\000"
 716      2D2D2D2D 
 716      2D2D2D2D 
 716      2D2D2D2D 
 716      2D2D2D2D 
 717 0019 000000   		.space	3
 718              	.LC1:
 719 001c 73656E73 		.ascii	"sensor (i) : %4d\012\000"
 719      6F722028 
 719      6929203A 
 719      20253464 
 719      0A00
 720              		.text
 721              	.Letext0:
 722              		.file 3 "/home/uos/Documents/kepuk/Eclipse_e-puck2/Tools/gcc-arm-none-eabi-7-2017-q4-major/arm-non
 723              		.file 4 "/home/uos/Documents/kepuk/Eclipse_e-puck2/Tools/gcc-arm-none-eabi-7-2017-q4-major/lib/gcc
 724              		.file 5 "/home/uos/Documents/kepuk/Eclipse_e-puck2/Tools/gcc-arm-none-eabi-7-2017-q4-major/lib/gcc
 725              		.file 6 "/home/uos/Documents/kepuk/Eclipse_e-puck2/Tools/gcc-arm-none-eabi-7-2017-q4-major/arm-non
 726              		.file 7 "/home/uos/Documents/kepuk/Eclipse_e-puck2/Tools/gcc-arm-none-eabi-7-2017-q4-major/arm-non
 727              		.file 8 "/home/uos/Documents/kepuk/Eclipse_e-puck2/Tools/gcc-arm-none-eabi-7-2017-q4-major/arm-non
ARM GAS  /tmp/cc8RXFf3.s 			page 14


 728              		.file 9 "/home/uos/Documents/kepuk/Eclipse_e-puck2/Tools/gcc-arm-none-eabi-7-2017-q4-major/arm-non
 729              		.file 10 "<built-in>"
 730              		.file 11 "/home/uos/Documents/kepuk/Eclipse_e-puck2/Tools/gcc-arm-none-eabi-7-2017-q4-major/arm-no
 731              		.file 12 "/home/uos/Documents/kepuk/Eclipse_e-puck2/Tools/gcc-arm-none-eabi-7-2017-q4-major/arm-no
 732              		.file 13 "/home/uos/Documents/kepuk/Eclipse_e-puck2/Tools/gcc-arm-none-eabi-7-2017-q4-major/arm-no
 733              		.file 14 "../e-puck2_main-processor/ChibiOS//os/rt/ports/ARMCMx/compilers/GCC/chtypes.h"
 734              		.file 15 "../e-puck2_main-processor/ChibiOS//os/rt/include/chsystypes.h"
 735              		.file 16 "../e-puck2_main-processor/ChibiOS//os/rt/include/chschd.h"
 736              		.file 17 "../e-puck2_main-processor/ChibiOS//os/ext/CMSIS/include/core_cm4.h"
 737              		.file 18 "../e-puck2_main-processor/ChibiOS//os/ext/CMSIS/ST/system_stm32f4xx.h"
 738              		.file 19 "../e-puck2_main-processor/ChibiOS//os/ext/CMSIS/ST/stm32f407xx.h"
 739              		.file 20 "../e-puck2_main-processor/ChibiOS//os/rt/ports/ARMCMx/chcore.h"
 740              		.file 21 "../e-puck2_main-processor/ChibiOS//os/rt/ports/ARMCMx/chcore_v7m.h"
 741              		.file 22 "../e-puck2_main-processor/ChibiOS//os/rt/include/chdebug.h"
 742              		.file 23 "../e-puck2_main-processor/ChibiOS//os/rt/include/chtm.h"
 743              		.file 24 "../e-puck2_main-processor/ChibiOS//os/rt/include/chstats.h"
 744              		.file 25 "../e-puck2_main-processor/ChibiOS//os/rt/include/chsem.h"
 745              		.file 26 "../e-puck2_main-processor/ChibiOS//os/rt/include/chmtx.h"
 746              		.file 27 "../e-puck2_main-processor/ChibiOS//os/rt/include/chregistry.h"
 747              		.file 28 "../e-puck2_main-processor/ChibiOS//os/rt/include/chcond.h"
 748              		.file 29 "../e-puck2_main-processor/ChibiOS//os/rt/include/chevents.h"
 749              		.file 30 "../e-puck2_main-processor/ChibiOS//os/rt/include/chqueues.h"
 750              		.file 31 "../e-puck2_main-processor/ChibiOS//os/rt/include/chstreams.h"
 751              		.file 32 "../e-puck2_main-processor/ChibiOS//os/hal/ports/STM32/STM32F4xx/stm32_dma.h"
 752              		.file 33 "../e-puck2_main-processor/ChibiOS//os/hal/include/hal_ioblock.h"
 753              		.file 34 "../e-puck2_main-processor/ChibiOS//os/hal/ports/STM32/LLD/GPIOv2/pal_lld.h"
 754              		.file 35 "../e-puck2_main-processor/ChibiOS//os/hal/include/adc.h"
 755              		.file 36 "../e-puck2_main-processor/ChibiOS//os/hal/ports/STM32/STM32F4xx/adc_lld.h"
 756              		.file 37 "../e-puck2_main-processor/ChibiOS//os/hal/include/can.h"
 757              		.file 38 "../e-puck2_main-processor/ChibiOS//os/hal/ports/STM32/LLD/can_lld.h"
 758              		.file 39 "../e-puck2_main-processor/ChibiOS//os/hal/include/dac.h"
 759              		.file 40 "../e-puck2_main-processor/ChibiOS//os/hal/ports/STM32/LLD/DACv1/dac_lld.h"
 760              		.file 41 "../e-puck2_main-processor/ChibiOS//os/hal/include/ext.h"
 761              		.file 42 "../e-puck2_main-processor/ChibiOS//os/hal/ports/STM32/LLD/ext_lld.h"
 762              		.file 43 "../e-puck2_main-processor/ChibiOS//os/hal/include/gpt.h"
 763              		.file 44 "../e-puck2_main-processor/ChibiOS//os/hal/ports/STM32/LLD/TIMv1/gpt_lld.h"
 764              		.file 45 "../e-puck2_main-processor/ChibiOS//os/hal/ports/STM32/LLD/TIMv1/stm32_tim.h"
 765              		.file 46 "../e-puck2_main-processor/ChibiOS//os/hal/include/i2c.h"
 766              		.file 47 "../e-puck2_main-processor/ChibiOS//os/hal/ports/STM32/LLD/I2Cv1/i2c_lld.h"
 767              		.file 48 "../e-puck2_main-processor/ChibiOS//os/hal/include/i2s.h"
 768              		.file 49 "../e-puck2_main-processor/ChibiOS//os/hal/ports/STM32/LLD/SPIv1/i2s_lld.h"
 769              		.file 50 "../e-puck2_main-processor/ChibiOS//os/hal/include/pwm.h"
 770              		.file 51 "../e-puck2_main-processor/ChibiOS//os/hal/ports/STM32/LLD/TIMv1/pwm_lld.h"
 771              		.file 52 "../e-puck2_main-processor/ChibiOS//os/hal/include/serial.h"
 772              		.file 53 "../e-puck2_main-processor/ChibiOS//os/hal/ports/STM32/LLD/USARTv1/serial_lld.h"
 773              		.file 54 "../e-puck2_main-processor/ChibiOS//os/hal/include/sdc.h"
 774              		.file 55 "../e-puck2_main-processor/ChibiOS//os/hal/ports/STM32/LLD/sdc_lld.h"
 775              		.file 56 "../e-puck2_main-processor/ChibiOS//os/hal/include/spi.h"
 776              		.file 57 "../e-puck2_main-processor/ChibiOS//os/hal/ports/STM32/LLD/SPIv1/spi_lld.h"
 777              		.file 58 "../e-puck2_main-processor/ChibiOS//os/hal/include/usb.h"
 778              		.file 59 "../e-puck2_main-processor/ChibiOS//os/hal/ports/STM32/LLD/OTGv1/usb_lld.h"
 779              		.file 60 "../e-puck2_main-processor/ChibiOS//os/hal/ports/STM32/LLD/OTGv1/stm32_otg.h"
 780              		.file 61 "../e-puck2_main-processor/ChibiOS//os/hal/include/serial_usb.h"
 781              		.file 62 "/home/uos/Documents/kepuk/Eclipse_e-puck2/Tools/gcc-arm-none-eabi-7-2017-q4-major/arm-no
 782              		.file 63 "../e-puck2_main-processor/src/msgbus/messagebus.h"
 783              		.file 64 "../e-puck2_main-processor/src/parameter/parameter.h"
 784              		.file 65 "./main.h"
ARM GAS  /tmp/cc8RXFf3.s 			page 15


 785              		.file 66 "../e-puck2_main-processor/src/motors.h"
 786              		.file 67 "../e-puck2_main-processor/src/usbcfg.h"
 787              		.file 68 "../e-puck2_main-processor/ChibiOS//os/rt/include/chsys.h"
 788              		.file 69 "../e-puck2_main-processor/ChibiOS//os/hal/include/hal.h"
 789              		.file 70 "../e-puck2_main-processor/src/serial_comm.h"
 790              		.file 71 "../e-puck2_main-processor/src/memory_protection.h"
 791              		.file 72 "../e-puck2_main-processor/src/leds.h"
 792              		.file 73 "../e-puck2_main-processor/src/spi_comm.h"
 793              		.file 74 "../e-puck2_main-processor/src/sensors/proximity.h"
 794              		.file 75 "../e-puck2_main-processor/ChibiOS//os/rt/include/chthreads.h"